target datalayout = "e-m:e-p270:32:32-p271:32:32-p272:64:64-i64:64-i128:128-f80:128-n8:16:32:64-S128"
target triple = "x86_64-pc-linux-gnu"

; Function Attrs: nounwind uwtable
define internal ptr @xor_load(ptr noundef %0, i64 noundef %1) #0 {
  %3 = alloca ptr, align 8
  %4 = alloca ptr, align 8
  %5 = alloca i64, align 8
  %6 = alloca ptr, align 8
  %7 = alloca i32, align 4
  store ptr %0, ptr %4, align 8, !tbaa !13
  store i64 %1, ptr %5, align 8, !tbaa !35
  call void @llvm.lifetime.start.p0(i64 8, ptr %6) #8
  store ptr null, ptr %6, align 8, !tbaa !41
  %8 = load i64, ptr %5, align 8, !tbaa !35
  %9 = icmp eq i64 %8, 8
  br i1 %9, label %10, label %15

10:                                               ; preds = %2
  %11 = load ptr, ptr %4, align 8, !tbaa !13
  %12 = load ptr, ptr %11, align 8, !tbaa !41
  store ptr %12, ptr %6, align 8, !tbaa !41
  %13 = load ptr, ptr %4, align 8, !tbaa !13
  store ptr null, ptr %13, align 8, !tbaa !41
  %14 = load ptr, ptr %6, align 8, !tbaa !41
  store ptr %14, ptr %3, align 8
  store i32 1, ptr %7, align 4
  br label %16

15:                                               ; preds = %2
  store ptr null, ptr %3, align 8
  store i32 1, ptr %7, align 4
  br label %16

16:                                               ; preds = %15, %10
  call void @llvm.lifetime.end.p0(i64 8, ptr %6) #8
  %17 = load ptr, ptr %3, align 8
  ret ptr %17
}