; Function Attrs: mustprogress nofree norecurse nosync nounwind willreturn memory(argmem: readwrite) uwtable
define internal ptr @xor_load(ptr noundef captures(none) %0, i64 noundef %1) #10 {
  %3 = icmp eq i64 %1, 8
  br i1 %3, label %4, label %6

4:                                                ; preds = %2
  %5 = load ptr, ptr %0, align 8, !tbaa !49
  store ptr null, ptr %0, align 8, !tbaa !49
  br label %6

6:                                                ; preds = %2, %4
  %.0 = phi ptr [ %5, %4 ], [ null, %2 ]
  ret ptr %.0
}